; Function Attrs: mustprogress uwtable
define void @_ZN6casadi2MX3eyeEx(ptr dead_on_unwind noalias writable sret(%"class.casadi::MX") align 8 %0, i64 noundef %1) local_unnamed_addr #3 align 2 personality ptr @__gxx_personality_v0 {
  %3 = alloca %"class.casadi::Matrix", align 8
  call void @_ZN6casadi6MatrixIdE3eyeEx(ptr dead_on_unwind nonnull writable sret(%"class.casadi::Matrix") align 8 %3, i64 noundef %1)
  invoke void @_ZN6casadi2MXC1ERKNS_6MatrixIdEE(ptr noundef nonnull align 8 dereferenceable(8) %0, ptr noundef nonnull align 8 dereferenceable(40) %3)
          to label %4 unwind label %9

4:                                                ; preds = %2
  %5 = getelementptr inbounds i8, ptr %3, i64 16
  %6 = load ptr, ptr %5, align 8
  %.not.i.i.i.i = icmp eq ptr %6, null
  br i1 %.not.i.i.i.i, label %_ZN6casadi6MatrixIdED2Ev.exit, label %7

7:                                                ; preds = %4
  call void @_ZdlPv(ptr noundef nonnull %6) #30
  br label %_ZN6casadi6MatrixIdED2Ev.exit

_ZN6casadi6MatrixIdED2Ev.exit:                    ; preds = %4, %7
  %8 = getelementptr inbounds i8, ptr %3, i64 8
  call void @_ZN6casadi12SharedObjectD2Ev(ptr noundef nonnull align 8 dereferenceable(8) %8) #27
  ret void

9:                                                ; preds = %2
  %10 = landingpad { ptr, i32 }
          cleanup
  call void @_ZN6casadi6MatrixIdED2Ev(ptr noundef nonnull align 8 dereferenceable(40) %3) #27
  resume { ptr, i32 } %10
}